; Function Attrs: nounwind uwtable
define dso_local range(i64 0, 2) i64 @range_upper_inc(ptr noundef readonly captures(none) %0) local_unnamed_addr #0 {
  %2 = getelementptr inbounds nuw i8, ptr %0, i64 32
  %3 = load i64, ptr %2, align 8
  %4 = inttoptr i64 %3 to ptr
  %5 = tail call ptr @pg_detoast_datum(ptr noundef %4) #14
  %6 = load i32, ptr %5, align 4
  %7 = lshr i32 %6, 2
  %8 = zext nneg i32 %7 to i64
  %9 = getelementptr inbounds nuw i8, ptr %5, i64 %8
  %10 = getelementptr inbounds i8, ptr %9, i64 -1
  %11 = load i8, ptr %10, align 1
  %12 = lshr i8 %11, 2
  %.lobit = and i8 %12, 1
  %13 = zext nneg i8 %.lobit to i64
  ret i64 %13
}